target datalayout = "e-m:e-p270:32:32-p271:32:32-p272:64:64-i64:64-i128:128-f80:128-n8:16:32:64-S128"
target triple = "x86_64-pc-linux-gnu"

%struct.grep_opt = type { ptr, ptr, ptr, ptr, ptr, ptr, i32, i32, i32, i32, i32, i32, i32, i32, i32, i32, i32, i32, i32, i32, i32, i32, i32, i32, i32, i32, i32, i32, i32, i32, i32, i32, [9 x [75 x i8]], i32, i32, i32, i32, i32, i32, i32, ptr, ptr, ptr }
%struct.grep_source = type { ptr, i32, ptr, ptr, ptr, i64, ptr, ptr }

; Function Attrs: nounwind uwtable
define internal void @show_funcname_line(ptr noundef %0, ptr noundef %1, ptr noundef %2, i32 noundef %3) #0 {
  %5 = alloca ptr, align 8
  %6 = alloca ptr, align 8
  %7 = alloca ptr, align 8
  %8 = alloca i32, align 4
  %9 = alloca ptr, align 8
  %10 = alloca i32, align 4
  store ptr %0, ptr %5, align 8, !tbaa !19
  store ptr %1, ptr %6, align 8, !tbaa !85
  store ptr %2, ptr %7, align 8, !tbaa !9
  store i32 %3, ptr %8, align 4, !tbaa !33
  br label %11

11:                                               ; preds = %64, %4
  %12 = load ptr, ptr %7, align 8, !tbaa !9
  %13 = load ptr, ptr %6, align 8, !tbaa !85
  %14 = getelementptr inbounds nuw %struct.grep_source, ptr %13, i32 0, i32 4
  %15 = load ptr, ptr %14, align 8, !tbaa !122
  %16 = icmp ugt ptr %12, %15
  br i1 %16, label %17, label %65

17:                                               ; preds = %11
  call void @llvm.lifetime.start.p0(i64 8, ptr %9) #11
  %18 = load ptr, ptr %7, align 8, !tbaa !9
  %19 = getelementptr inbounds i8, ptr %18, i32 -1
  store ptr %19, ptr %7, align 8, !tbaa !9
  store ptr %19, ptr %9, align 8, !tbaa !9
  br label %20

20:                                               ; preds = %34, %17
  %21 = load ptr, ptr %7, align 8, !tbaa !9
  %22 = load ptr, ptr %6, align 8, !tbaa !85
  %23 = getelementptr inbounds nuw %struct.grep_source, ptr %22, i32 0, i32 4
  %24 = load ptr, ptr %23, align 8, !tbaa !122
  %25 = icmp ugt ptr %21, %24
  br i1 %25, label %26, label %32

26:                                               ; preds = %20
  %27 = load ptr, ptr %7, align 8, !tbaa !9
  %28 = getelementptr inbounds i8, ptr %27, i64 -1
  %29 = load i8, ptr %28, align 1, !tbaa !36
  %30 = sext i8 %29 to i32
  %31 = icmp ne i32 %30, 10
  br label %32

32:                                               ; preds = %26, %20
  %33 = phi i1 [ false, %20 ], [ %31, %26 ]
  br i1 %33, label %34, label %37

34:                                               ; preds = %32
  %35 = load ptr, ptr %7, align 8, !tbaa !9
  %36 = getelementptr inbounds i8, ptr %35, i32 -1
  store ptr %36, ptr %7, align 8, !tbaa !9
  br label %20, !llvm.loop !169

37:                                               ; preds = %32
  %38 = load i32, ptr %8, align 4, !tbaa !33
  %39 = add i32 %38, -1
  store i32 %39, ptr %8, align 4, !tbaa !33
  %40 = load i32, ptr %8, align 4, !tbaa !33
  %41 = load ptr, ptr %5, align 8, !tbaa !19
  %42 = getelementptr inbounds nuw %struct.grep_opt, ptr %41, i32 0, i32 35
  %43 = load i32, ptr %42, align 4, !tbaa !98
  %44 = icmp ule i32 %40, %43
  br i1 %44, label %45, label %46

45:                                               ; preds = %37
  store i32 3, ptr %10, align 4
  br label %62

46:                                               ; preds = %37
  %47 = load ptr, ptr %5, align 8, !tbaa !19
  %48 = load ptr, ptr %6, align 8, !tbaa !85
  %49 = load ptr, ptr %7, align 8, !tbaa !9
  %50 = load ptr, ptr %9, align 8, !tbaa !9
  %51 = call i32 @match_funcname(ptr noundef %47, ptr noundef %48, ptr noundef %49, ptr noundef %50)
  %52 = icmp ne i32 %51, 0
  br i1 %52, label %53, label %61

53:                                               ; preds = %46
  %54 = load ptr, ptr %5, align 8, !tbaa !19
  %55 = load ptr, ptr %7, align 8, !tbaa !9
  %56 = load ptr, ptr %9, align 8, !tbaa !9
  %57 = load ptr, ptr %6, align 8, !tbaa !85
  %58 = getelementptr inbounds nuw %struct.grep_source, ptr %57, i32 0, i32 0
  %59 = load ptr, ptr %58, align 8, !tbaa !91
  %60 = load i32, ptr %8, align 4, !tbaa !33
  call void @show_line(ptr noundef %54, ptr noundef %55, ptr noundef %56, ptr noundef %59, i32 noundef %60, i64 noundef 0, i8 noundef signext 61)
  store i32 3, ptr %10, align 4
  br label %62

61:                                               ; preds = %46
  store i32 0, ptr %10, align 4
  br label %62

62:                                               ; preds = %61, %53, %45
  call void @llvm.lifetime.end.p0(i64 8, ptr %9) #11
  %63 = load i32, ptr %10, align 4
  switch i32 %63, label %66 [
    i32 0, label %64
    i32 3, label %65
  ]

64:                                               ; preds = %62
  br label %11, !llvm.loop !170

65:                                               ; preds = %62, %11
  ret void

66:                                               ; preds = %62
  unreachable
}