; Function Attrs: nounwind uwtable
define internal fastcc void @show_funcname_line(ptr noundef %0, ptr noundef captures(none) %1, ptr noundef %2, i32 noundef %3) unnamed_addr #0 {
  %5 = getelementptr inbounds nuw i8, ptr %1, i64 32
  %6 = getelementptr inbounds nuw i8, ptr %0, i64 836
  br label %7

7:                                                ; preds = %21, %4
  %.020 = phi i32 [ %3, %4 ], [ %19, %21 ]
  %.019 = phi ptr [ %2, %4 ], [ %.1.lcssa, %21 ]
  %8 = load ptr, ptr %5, align 8, !tbaa !119
  %9 = icmp ugt ptr %.019, %8
  br i1 %9, label %10, label %.thread

10:                                               ; preds = %7
  %11 = ptrtoint ptr %8 to i64
  %.01928 = ptrtoint ptr %.019 to i64
  %12 = getelementptr inbounds i8, ptr %.019, i64 -1
  %13 = sub i64 %11, %.01928
  %scevgep = getelementptr i8, ptr %.019, i64 %13
  br label %14

14:                                               ; preds = %16, %10
  %.1 = phi ptr [ %12, %10 ], [ %17, %16 ]
  %15 = icmp ugt ptr %.1, %8
  br i1 %15, label %16, label %.critedge

16:                                               ; preds = %14
  %17 = getelementptr inbounds i8, ptr %.1, i64 -1
  %18 = load i8, ptr %17, align 1, !tbaa !23
  %.not = icmp eq i8 %18, 10
  br i1 %.not, label %.critedge, label %14, !llvm.loop !146

.critedge:                                        ; preds = %14, %16
  %.1.lcssa = phi ptr [ %scevgep, %14 ], [ %.1, %16 ]
  %19 = add i32 %.020, -1
  %20 = load i32, ptr %6, align 4, !tbaa !85
  %.not22 = icmp ugt i32 %19, %20
  br i1 %.not22, label %21, label %.thread

21:                                               ; preds = %.critedge
  %22 = tail call fastcc i32 @match_funcname(ptr noundef nonnull %0, ptr noundef %1, ptr noundef nonnull %.1.lcssa, ptr noundef nonnull %12)
  %.not23 = icmp eq i32 %22, 0
  br i1 %.not23, label %7, label %23

23:                                               ; preds = %21
  %24 = load ptr, ptr %1, align 8, !tbaa !77
  tail call fastcc void @show_line(ptr noundef nonnull %0, ptr noundef nonnull %.1.lcssa, ptr noundef nonnull %12, ptr noundef %24, i32 noundef %19, i64 noundef 0, i8 noundef signext 61)
  br label %.thread

.thread:                                          ; preds = %.critedge, %7, %23
  ret void
}